target datalayout = "e-m:e-p270:32:32-p271:32:32-p272:64:64-i64:64-i128:128-f80:128-n8:16:32:64-S128"
target triple = "x86_64-pc-linux-gnu"

; Function Attrs: nounwind uwtable
define i32 @dt_util_gps_elevation_to_number(double noundef %0, double noundef %1, i8 noundef signext %2, ptr noundef %3) #0 {
  %5 = alloca i32, align 4
  %6 = alloca double, align 8
  %7 = alloca double, align 8
  %8 = alloca i8, align 1
  %9 = alloca ptr, align 8
  %10 = alloca double, align 8
  %11 = alloca double, align 8
  %12 = alloca double, align 8
  %13 = alloca i32, align 4
  store double %0, ptr %6, align 8, !tbaa !19
  store double %1, ptr %7, align 8, !tbaa !19
  store i8 %2, ptr %8, align 1, !tbaa !18
  store ptr %3, ptr %9, align 8, !tbaa !101
  %14 = load ptr, ptr %9, align 8, !tbaa !101
  %15 = icmp ne ptr %14, null
  br i1 %15, label %17, label %16

16:                                               ; preds = %4
  store i32 0, ptr %5, align 4
  br label %37

17:                                               ; preds = %4
  call void @llvm.lifetime.start.p0(i64 8, ptr %10) #18
  store double 0.000000e+00, ptr %10, align 8, !tbaa !19
  call void @llvm.lifetime.start.p0(i64 8, ptr %11) #18
  %18 = load double, ptr %6, align 8, !tbaa !19
  store double %18, ptr %11, align 8, !tbaa !19
  call void @llvm.lifetime.start.p0(i64 8, ptr %12) #18
  %19 = load double, ptr %7, align 8, !tbaa !19
  store double %19, ptr %12, align 8, !tbaa !19
  %20 = load double, ptr %12, align 8, !tbaa !19
  %21 = fcmp reassoc nsz arcp contract afn oeq double %20, 0.000000e+00
  br i1 %21, label %22, label %23

22:                                               ; preds = %17
  store i32 0, ptr %5, align 4
  store i32 1, ptr %13, align 4
  br label %36

23:                                               ; preds = %17
  %24 = load double, ptr %11, align 8, !tbaa !19
  %25 = load double, ptr %12, align 8, !tbaa !19
  %26 = fdiv reassoc nsz arcp contract afn double %24, %25
  store double %26, ptr %10, align 8, !tbaa !19
  %27 = load i8, ptr %8, align 1, !tbaa !18
  %28 = sext i8 %27 to i32
  %29 = icmp ne i32 %28, 48
  br i1 %29, label %30, label %33

30:                                               ; preds = %23
  %31 = load double, ptr %10, align 8, !tbaa !19
  %32 = fmul reassoc nsz arcp contract afn double %31, -1.000000e+00
  store double %32, ptr %10, align 8, !tbaa !19
  br label %33

33:                                               ; preds = %30, %23
  %34 = load double, ptr %10, align 8, !tbaa !19
  %35 = load ptr, ptr %9, align 8, !tbaa !101
  store double %34, ptr %35, align 8, !tbaa !19
  store i32 1, ptr %5, align 4
  store i32 1, ptr %13, align 4
  br label %36

36:                                               ; preds = %33, %22
  call void @llvm.lifetime.end.p0(i64 8, ptr %12) #18
  call void @llvm.lifetime.end.p0(i64 8, ptr %11) #18
  call void @llvm.lifetime.end.p0(i64 8, ptr %10) #18
  br label %37

37:                                               ; preds = %36, %16
  %38 = load i32, ptr %5, align 4
  ret i32 %38
}