; Function Attrs: mustprogress nofree norecurse nosync nounwind willreturn memory(argmem: write) uwtable
define range(i32 0, 2) i32 @dt_util_gps_elevation_to_number(double noundef %0, double noundef %1, i8 noundef signext %2, ptr noundef writeonly %3) local_unnamed_addr #17 {
  %.not = icmp eq ptr %3, null
  %5 = fcmp reassoc nsz arcp contract afn oeq double %1, 0.000000e+00
  %or.cond = or i1 %5, %.not
  br i1 %or.cond, label %9, label %6

6:                                                ; preds = %4
  %7 = fdiv reassoc nsz arcp contract afn double %0, %1
  %.not13 = icmp eq i8 %2, 48
  %8 = fneg reassoc nsz arcp contract afn double %7
  %spec.select = select i1 %.not13, double %7, double %8
  store double %spec.select, ptr %3, align 8, !tbaa !37
  br label %9

9:                                                ; preds = %6, %4
  %.0 = phi i32 [ 0, %4 ], [ 1, %6 ]
  ret i32 %.0
}